target datalayout = "e-m:e-p270:32:32-p271:32:32-p272:64:64-i64:64-i128:128-f80:128-n8:16:32:64-S128"
target triple = "x86_64-pc-linux-gnu"

%struct.aiScene = type { i32, ptr, i32, ptr, i32, ptr, i32, ptr, i32, ptr, i32, ptr, i32, ptr, ptr, %struct.aiString, i32, ptr, ptr }
%struct.aiString = type { i32, [1024 x i8] }

@.str = private unnamed_addr constant [25 x i8] c"TriangulateProcess begin\00", align 1
@.str.1 = private unnamed_addr constant [66 x i8] c"TriangulateProcess finished. All polygons have been triangulated.\00", align 1
@.str.2 = private unnamed_addr constant [59 x i8] c"TriangulateProcess finished. There was nothing to be done.\00", align 1

; Function Attrs: mustprogress uwtable
define void @_ZN6Assimp18TriangulateProcess7ExecuteEP7aiScene(ptr noundef nonnull align 8 dereferenceable(24) %0, ptr noundef %1) unnamed_addr #1 align 2 {
  %3 = alloca ptr, align 8
  %4 = alloca ptr, align 8
  %5 = alloca i8, align 1
  %6 = alloca i32, align 4
  store ptr %0, ptr %3, align 8
  store ptr %1, ptr %4, align 8
  %7 = load ptr, ptr %3, align 8
  %8 = call noundef ptr @_ZN6Assimp13DefaultLogger3getEv()
  call void @_ZN6Assimp6Logger5debugEPKc(ptr noundef nonnull align 8 dereferenceable(12) %8, ptr noundef @.str)
  call void @llvm.lifetime.start.p0(i64 1, ptr %5) #16
  store i8 0, ptr %5, align 1
  call void @llvm.lifetime.start.p0(i64 4, ptr %6) #16
  store i32 0, ptr %6, align 4
  br label %9

9:                                                ; preds = %37, %2
  %10 = load i32, ptr %6, align 4
  %11 = load ptr, ptr %4, align 8
  %12 = getelementptr inbounds nuw %struct.aiScene, ptr %11, i32 0, i32 2
  %13 = load i32, ptr %12, align 8
  %14 = icmp ult i32 %10, %13
  br i1 %14, label %16, label %15

15:                                               ; preds = %9
  call void @llvm.lifetime.end.p0(i64 4, ptr %6) #16
  br label %40

16:                                               ; preds = %9
  %17 = load ptr, ptr %4, align 8
  %18 = getelementptr inbounds nuw %struct.aiScene, ptr %17, i32 0, i32 3
  %19 = load ptr, ptr %18, align 8
  %20 = load i32, ptr %6, align 4
  %21 = zext i32 %20 to i64
  %22 = getelementptr inbounds nuw ptr, ptr %19, i64 %21
  %23 = load ptr, ptr %22, align 8
  %24 = icmp ne ptr %23, null
  br i1 %24, label %25, label %36

25:                                               ; preds = %16
  %26 = load ptr, ptr %4, align 8
  %27 = getelementptr inbounds nuw %struct.aiScene, ptr %26, i32 0, i32 3
  %28 = load ptr, ptr %27, align 8
  %29 = load i32, ptr %6, align 4
  %30 = zext i32 %29 to i64
  %31 = getelementptr inbounds nuw ptr, ptr %28, i64 %30
  %32 = load ptr, ptr %31, align 8
  %33 = call noundef zeroext i1 @_ZN6Assimp18TriangulateProcess15TriangulateMeshEP6aiMesh(ptr noundef nonnull align 8 dereferenceable(24) %7, ptr noundef %32)
  br i1 %33, label %34, label %35

34:                                               ; preds = %25
  store i8 1, ptr %5, align 1
  br label %35

35:                                               ; preds = %34, %25
  br label %36

36:                                               ; preds = %35, %16
  br label %37

37:                                               ; preds = %36
  %38 = load i32, ptr %6, align 4
  %39 = add i32 %38, 1
  store i32 %39, ptr %6, align 4
  br label %9, !llvm.loop !3

40:                                               ; preds = %15
  %41 = load i8, ptr %5, align 1, !range !5, !noundef !6
  %42 = trunc i8 %41 to i1
  br i1 %42, label %43, label %45

43:                                               ; preds = %40
  %44 = call noundef ptr @_ZN6Assimp13DefaultLogger3getEv()
  call void @_ZN6Assimp6Logger4infoEPKc(ptr noundef nonnull align 8 dereferenceable(12) %44, ptr noundef @.str.1)
  br label %47

45:                                               ; preds = %40
  %46 = call noundef ptr @_ZN6Assimp13DefaultLogger3getEv()
  call void @_ZN6Assimp6Logger5debugEPKc(ptr noundef nonnull align 8 dereferenceable(12) %46, ptr noundef @.str.2)
  br label %47

47:                                               ; preds = %45, %43
  call void @llvm.lifetime.end.p0(i64 1, ptr %5) #16
  ret void
}