; Function Attrs: mustprogress uwtable
define void @_ZN6Assimp18TriangulateProcess7ExecuteEP7aiScene(ptr noundef nonnull readnone align 8 captures(none) dereferenceable(24) %0, ptr noundef readonly captures(none) %1) unnamed_addr #1 align 2 {
  %3 = tail call noundef ptr @_ZN6Assimp13DefaultLogger3getEv()
  tail call void @_ZN6Assimp6Logger5debugEPKc(ptr noundef nonnull align 8 dereferenceable(12) %3, ptr noundef nonnull @.str)
  %4 = getelementptr inbounds nuw i8, ptr %1, i64 16
  %5 = load i32, ptr %4, align 8
  %.not12 = icmp eq i32 %5, 0
  br i1 %.not12, label %.critedge, label %.lr.ph

.lr.ph:                                           ; preds = %2
  %6 = getelementptr inbounds nuw i8, ptr %1, i64 24
  br label %7

._crit_edge:                                      ; preds = %14
  br i1 %.1, label %18, label %.critedge

7:                                                ; preds = %.lr.ph, %14
  %8 = phi i32 [ %5, %.lr.ph ], [ %15, %14 ]
  %indvars.iv = phi i64 [ 0, %.lr.ph ], [ %indvars.iv.next, %14 ]
  %.0810 = phi i1 [ false, %.lr.ph ], [ %.1, %14 ]
  %9 = load ptr, ptr %6, align 8
  %10 = getelementptr inbounds nuw ptr, ptr %9, i64 %indvars.iv
  %11 = load ptr, ptr %10, align 8
  %.not = icmp eq ptr %11, null
  br i1 %.not, label %14, label %12

12:                                               ; preds = %7
  %13 = tail call noundef zeroext i1 @_ZN6Assimp18TriangulateProcess15TriangulateMeshEP6aiMesh(ptr nonnull align 8 poison, ptr noundef nonnull %11)
  %spec.select = select i1 %13, i1 true, i1 %.0810
  %.pre = load i32, ptr %4, align 8
  br label %14

14:                                               ; preds = %12, %7
  %15 = phi i32 [ %8, %7 ], [ %.pre, %12 ]
  %.1 = phi i1 [ %.0810, %7 ], [ %spec.select, %12 ]
  %indvars.iv.next = add nuw nsw i64 %indvars.iv, 1
  %16 = zext i32 %15 to i64
  %17 = icmp samesign ult i64 %indvars.iv.next, %16
  br i1 %17, label %7, label %._crit_edge, !llvm.loop !3

18:                                               ; preds = %._crit_edge
  %19 = tail call noundef ptr @_ZN6Assimp13DefaultLogger3getEv()
  tail call void @_ZN6Assimp6Logger4infoEPKc(ptr noundef nonnull align 8 dereferenceable(12) %19, ptr noundef nonnull @.str.1)
  br label %21

.critedge:                                        ; preds = %2, %._crit_edge
  %20 = tail call noundef ptr @_ZN6Assimp13DefaultLogger3getEv()
  tail call void @_ZN6Assimp6Logger5debugEPKc(ptr noundef nonnull align 8 dereferenceable(12) %20, ptr noundef nonnull @.str.2)
  br label %21

21:                                               ; preds = %.critedge, %18
  ret void
}